target datalayout = "e-m:e-p270:32:32-p271:32:32-p272:64:64-i64:64-i128:128-f80:128-n8:16:32:64-S128"
target triple = "x86_64-unknown-linux-gnu"

%struct.tinfl_decompressor_tag = type { i32, i32, i32, i32, i32, i32, i32, i32, i32, i32, i32, [3 x i32], i64, i64, [3 x %struct.tinfl_huff_table], [4 x i8], [457 x i8] }
%struct.tinfl_huff_table = type { [288 x i8], [1024 x i16], [576 x i16] }

; Function Attrs: nounwind uwtable
define hidden i64 @tinfl_decompress_mem_to_mem(ptr noundef %pOut_buf, i64 noundef %out_buf_len, ptr noundef %pSrc_buf, i64 noundef %src_buf_len, i32 noundef %flags) #0 {
entry:
  %pOut_buf.addr = alloca ptr, align 8
  %out_buf_len.addr = alloca i64, align 8
  %pSrc_buf.addr = alloca ptr, align 8
  %src_buf_len.addr = alloca i64, align 8
  %flags.addr = alloca i32, align 4
  %decomp = alloca %struct.tinfl_decompressor_tag, align 8
  %status = alloca i32, align 4
  store ptr %pOut_buf, ptr %pOut_buf.addr, align 8
  store i64 %out_buf_len, ptr %out_buf_len.addr, align 8
  store ptr %pSrc_buf, ptr %pSrc_buf.addr, align 8
  store i64 %src_buf_len, ptr %src_buf_len.addr, align 8
  store i32 %flags, ptr %flags.addr, align 4
  br label %do.body

do.body:                                          ; preds = %entry
  %m_state = getelementptr inbounds %struct.tinfl_decompressor_tag, ptr %decomp, i32 0, i32 0
  store i32 0, ptr %m_state, align 8
  br label %do.end

do.end:                                           ; preds = %do.body
  %0 = load ptr, ptr %pSrc_buf.addr, align 8
  %1 = load ptr, ptr %pOut_buf.addr, align 8
  %2 = load ptr, ptr %pOut_buf.addr, align 8
  %3 = load i32, ptr %flags.addr, align 4
  %and = and i32 %3, -3
  %or = or i32 %and, 4
  %call = call i32 @tinfl_decompress(ptr noundef %decomp, ptr noundef %0, ptr noundef %src_buf_len.addr, ptr noundef %1, ptr noundef %2, ptr noundef %out_buf_len.addr, i32 noundef %or)
  store i32 %call, ptr %status, align 4
  %4 = load i32, ptr %status, align 4
  %cmp = icmp ne i32 %4, 0
  br i1 %cmp, label %cond.true, label %cond.false

cond.true:                                        ; preds = %do.end
  br label %cond.end

cond.false:                                       ; preds = %do.end
  %5 = load i64, ptr %out_buf_len.addr, align 8
  br label %cond.end

cond.end:                                         ; preds = %cond.false, %cond.true
  %cond = phi i64 [ -1, %cond.true ], [ %5, %cond.false ]
  ret i64 %cond
}