; Function Attrs: nofree norecurse nosync nounwind memory(readwrite, inaccessiblemem: none) uwtable
define hidden i64 @tinfl_decompress_mem_to_mem(ptr noundef %pOut_buf, i64 noundef %out_buf_len, ptr noundef %pSrc_buf, i64 noundef %src_buf_len, i32 noundef %flags) local_unnamed_addr #10 {
entry:
  %out_buf_len.addr = alloca i64, align 8
  %src_buf_len.addr = alloca i64, align 8
  %decomp = alloca %struct.tinfl_decompressor_tag, align 8
  store i64 %out_buf_len, ptr %out_buf_len.addr, align 8
  store i64 %src_buf_len, ptr %src_buf_len.addr, align 8
  store i32 0, ptr %decomp, align 8
  %and = and i32 %flags, -7
  %or = or disjoint i32 %and, 4
  %call = call i32 @tinfl_decompress(ptr noundef nonnull %decomp, ptr noundef %pSrc_buf, ptr noundef nonnull %src_buf_len.addr, ptr noundef %pOut_buf, ptr noundef %pOut_buf, ptr noundef nonnull %out_buf_len.addr, i32 noundef %or)
  %cmp.not = icmp eq i32 %call, 0
  %0 = load i64, ptr %out_buf_len.addr, align 8
  %cond = select i1 %cmp.not, i64 %0, i64 -1
  ret i64 %cond
}